; Function Attrs: mustprogress nounwind uwtable
define hidden void @_ZN7oopDesc23release_float_field_putEif(ptr noundef nonnull align 8 dereferenceable(16) %0, i32 noundef %1, float noundef %2) local_unnamed_addr #0 align 2 {
  %4 = ptrtoint ptr %0 to i64
  %5 = sext i32 %1 to i64
  %6 = add nsw i64 %5, %4
  %7 = inttoptr i64 %6 to ptr
  %8 = bitcast float %2 to i32
  tail call void asm sideeffect "", "~{memory},~{dirflag},~{fpsr},~{flags}"() #11, !srcloc !6
  store volatile i32 %8, ptr %7, align 4
  ret void
}